target datalayout = "e-m:e-p270:32:32-p271:32:32-p272:64:64-i64:64-i128:128-f80:128-n8:16:32:64-S128"
target triple = "x86_64-pc-linux-gnu"

@.str = private unnamed_addr constant [32 x i8] c"../openssl/test/testutil/load.c\00", align 1
@.str.1 = private unnamed_addr constant [5 x i8] c"file\00", align 1
@.str.10 = private unnamed_addr constant [31 x i8] c"bio = BIO_new_file(file, \22rb\22)\00", align 1
@.str.11 = private unnamed_addr constant [3 x i8] c"rb\00", align 1
@.str.12 = private unnamed_addr constant [4 x i8] c"csr\00", align 1
@.str.13 = private unnamed_addr constant [28 x i8] c"d2i_X509_REQ_bio(bio, &csr)\00", align 1

; Function Attrs: nounwind uwtable
define ptr @load_csr_der(ptr noundef %0, ptr noundef %1) #0 {
  %3 = alloca ptr, align 8
  %4 = alloca ptr, align 8
  %5 = alloca ptr, align 8
  %6 = alloca ptr, align 8
  %7 = alloca ptr, align 8
  %8 = alloca i32, align 4
  store ptr %0, ptr %4, align 8, !tbaa !3
  store ptr %1, ptr %5, align 8, !tbaa !8
  call void @llvm.lifetime.start.p0(i64 8, ptr %6) #4
  store ptr null, ptr %6, align 8, !tbaa !22
  call void @llvm.lifetime.start.p0(i64 8, ptr %7) #4
  store ptr null, ptr %7, align 8, !tbaa !12
  %9 = load ptr, ptr %4, align 8, !tbaa !3
  %10 = call i32 @test_ptr(ptr noundef @.str, i32 noundef 97, ptr noundef @.str.1, ptr noundef %9)
  %11 = icmp ne i32 %10, 0
  br i1 %11, label %12, label %17

12:                                               ; preds = %2
  %13 = load ptr, ptr %4, align 8, !tbaa !3
  %14 = call ptr @BIO_new_file(ptr noundef %13, ptr noundef @.str.11)
  store ptr %14, ptr %7, align 8, !tbaa !12
  %15 = call i32 @test_ptr(ptr noundef @.str, i32 noundef 97, ptr noundef @.str.10, ptr noundef %14)
  %16 = icmp ne i32 %15, 0
  br i1 %16, label %18, label %17

17:                                               ; preds = %12, %2
  store ptr null, ptr %3, align 8
  store i32 1, ptr %8, align 4
  br label %32

18:                                               ; preds = %12
  %19 = load ptr, ptr %5, align 8, !tbaa !8
  %20 = call ptr @X509_REQ_new_ex(ptr noundef %19, ptr noundef null)
  store ptr %20, ptr %6, align 8, !tbaa !22
  %21 = load ptr, ptr %6, align 8, !tbaa !22
  %22 = call i32 @test_ptr(ptr noundef @.str, i32 noundef 101, ptr noundef @.str.12, ptr noundef %21)
  %23 = icmp ne i32 %22, 0
  br i1 %23, label %24, label %28

24:                                               ; preds = %18
  %25 = load ptr, ptr %7, align 8, !tbaa !12
  %26 = call ptr @d2i_X509_REQ_bio(ptr noundef %25, ptr noundef %6)
  %27 = call i32 @test_ptr(ptr noundef @.str, i32 noundef 102, ptr noundef @.str.13, ptr noundef %26)
  br label %28

28:                                               ; preds = %24, %18
  %29 = load ptr, ptr %7, align 8, !tbaa !12
  %30 = call i32 @BIO_free(ptr noundef %29)
  %31 = load ptr, ptr %6, align 8, !tbaa !22
  store ptr %31, ptr %3, align 8
  store i32 1, ptr %8, align 4
  br label %32

32:                                               ; preds = %28, %17
  call void @llvm.lifetime.end.p0(i64 8, ptr %7) #4
  call void @llvm.lifetime.end.p0(i64 8, ptr %6) #4
  %33 = load ptr, ptr %3, align 8
  ret ptr %33
}