; Function Attrs: nounwind uwtable
define ptr @load_csr_der(ptr noundef %0, ptr noundef %1) local_unnamed_addr #0 {
  %3 = alloca ptr, align 8
  call void @llvm.lifetime.start.p0(i64 8, ptr nonnull %3) #3
  %4 = tail call i32 @test_ptr(ptr noundef nonnull @.str, i32 noundef 97, ptr noundef nonnull @.str.1, ptr noundef %0) #3
  %.not = icmp eq i32 %4, 0
  br i1 %.not, label %17, label %5

5:                                                ; preds = %2
  %6 = tail call ptr @BIO_new_file(ptr noundef %0, ptr noundef nonnull @.str.11) #3
  %7 = tail call i32 @test_ptr(ptr noundef nonnull @.str, i32 noundef 97, ptr noundef nonnull @.str.10, ptr noundef %6) #3
  %.not6 = icmp eq i32 %7, 0
  br i1 %.not6, label %17, label %8

8:                                                ; preds = %5
  %9 = tail call ptr @X509_REQ_new_ex(ptr noundef %1, ptr noundef null) #3
  store ptr %9, ptr %3, align 8, !tbaa !10
  %10 = tail call i32 @test_ptr(ptr noundef nonnull @.str, i32 noundef 101, ptr noundef nonnull @.str.12, ptr noundef %9) #3
  %.not7 = icmp eq i32 %10, 0
  br i1 %.not7, label %14, label %11

11:                                               ; preds = %8
  %12 = call ptr @d2i_X509_REQ_bio(ptr noundef %6, ptr noundef nonnull %3) #3
  %13 = call i32 @test_ptr(ptr noundef nonnull @.str, i32 noundef 102, ptr noundef nonnull @.str.13, ptr noundef %12) #3
  br label %14

14:                                               ; preds = %11, %8
  %15 = call i32 @BIO_free(ptr noundef %6) #3
  %16 = load ptr, ptr %3, align 8, !tbaa !10
  br label %17

17:                                               ; preds = %2, %5, %14
  %.0 = phi ptr [ %16, %14 ], [ null, %5 ], [ null, %2 ]
  call void @llvm.lifetime.end.p0(i64 8, ptr nonnull %3) #3
  ret ptr %.0
}